; Function Attrs: mustprogress uwtable
define internal fastcc noundef nonnull ptr @_ZL14to_string_listIRNSt7__cxx114listINS0_12basic_stringIcSt11char_traitsIcESaIcEEESaIS6_EEEEPPcOT_(ptr noundef nonnull readonly align 8 dereferenceable(24) %0) unnamed_addr #2 personality ptr @__gxx_personality_v0 {
  %2 = getelementptr inbounds i8, ptr %0, i64 16
  %3 = load i64, ptr %2, align 8
  %4 = add i64 %3, 1
  %5 = icmp ugt i64 %4, 2305843009213693951
  %6 = shl i64 %4, 3
  %7 = select i1 %5, i64 -1, i64 %6
  %8 = tail call noalias noundef nonnull ptr @_Znam(i64 noundef %7) #30
  %.sroa.027.032 = load ptr, ptr %0, align 8
  %.not3033 = icmp eq ptr %.sroa.027.032, %0
  br i1 %.not3033, label %._crit_edge, label %.lr.ph

.lr.ph:                                           ; preds = %1, %13
  %.sroa.027.035 = phi ptr [ %.sroa.027.0, %13 ], [ %.sroa.027.032, %1 ]
  %.034 = phi i64 [ %18, %13 ], [ 0, %1 ]
  %9 = getelementptr inbounds i8, ptr %.sroa.027.035, i64 16
  %10 = tail call noundef i64 @_ZNKSt7__cxx1112basic_stringIcSt11char_traitsIcESaIcEE4sizeEv(ptr noundef nonnull align 8 dereferenceable(32) %9) #27
  %11 = add i64 %10, 1
  %12 = invoke noalias noundef nonnull ptr @_Znam(i64 noundef %11) #30
          to label %13 unwind label %19

13:                                               ; preds = %.lr.ph
  %14 = getelementptr inbounds ptr, ptr %8, i64 %.034
  store ptr %12, ptr %14, align 8
  %15 = tail call noundef ptr @_ZNKSt7__cxx1112basic_stringIcSt11char_traitsIcESaIcEE5c_strEv(ptr noundef nonnull align 8 dereferenceable(32) %9) #27
  %16 = tail call noundef i64 @_ZNKSt7__cxx1112basic_stringIcSt11char_traitsIcESaIcEE4sizeEv(ptr noundef nonnull align 8 dereferenceable(32) %9) #27
  %17 = add i64 %16, 1
  tail call void @llvm.memcpy.p0.p0.i64(ptr nonnull align 1 %12, ptr align 1 %15, i64 %17, i1 false)
  %18 = add i64 %.034, 1
  %.sroa.027.0 = load ptr, ptr %.sroa.027.035, align 8
  %.not30 = icmp eq ptr %.sroa.027.0, %0
  br i1 %.not30, label %._crit_edge, label %.lr.ph

19:                                               ; preds = %.lr.ph
  %20 = landingpad { ptr, i32 }
          catch ptr @_ZTISt9exception
  %21 = extractvalue { ptr, i32 } %20, 1
  %22 = tail call i32 @llvm.eh.typeid.for(ptr nonnull @_ZTISt9exception) #27
  %23 = icmp eq i32 %21, %22
  br i1 %23, label %24, label %38

24:                                               ; preds = %19
  %25 = extractvalue { ptr, i32 } %20, 0
  %26 = tail call ptr @__cxa_begin_catch(ptr %25) #27
  %27 = add i64 %.034, -1
  %.not36 = icmp eq i64 %27, 0
  br i1 %.not36, label %._crit_edge39, label %.lr.ph38

.lr.ph38:                                         ; preds = %24, %33
  %28 = phi i64 [ %34, %33 ], [ %27, %24 ]
  %29 = getelementptr inbounds ptr, ptr %8, i64 %28
  %30 = load ptr, ptr %29, align 8
  %31 = icmp eq ptr %30, null
  br i1 %31, label %33, label %32

32:                                               ; preds = %.lr.ph38
  tail call void @_ZdaPv(ptr noundef nonnull %30) #28
  br label %33

33:                                               ; preds = %32, %.lr.ph38
  %34 = add i64 %28, -1
  %.not = icmp eq i64 %34, 0
  br i1 %.not, label %._crit_edge39, label %.lr.ph38, !llvm.loop !17

._crit_edge39:                                    ; preds = %33, %24
  tail call void @_ZdaPv(ptr noundef nonnull %8) #28
  invoke void @__cxa_rethrow() #29
          to label %42 unwind label %35

35:                                               ; preds = %._crit_edge39
  %36 = landingpad { ptr, i32 }
          cleanup
  invoke void @__cxa_end_catch()
          to label %38 unwind label %39

._crit_edge:                                      ; preds = %13, %1
  %.0.lcssa = phi i64 [ 0, %1 ], [ %18, %13 ]
  %37 = getelementptr inbounds ptr, ptr %8, i64 %.0.lcssa
  store ptr null, ptr %37, align 8
  ret ptr %8

38:                                               ; preds = %35, %19
  %.merged = phi { ptr, i32 } [ %36, %35 ], [ %20, %19 ]
  resume { ptr, i32 } %.merged

39:                                               ; preds = %35
  %40 = landingpad { ptr, i32 }
          catch ptr null
  %41 = extractvalue { ptr, i32 } %40, 0
  tail call void @__clang_call_terminate(ptr %41) #31
  unreachable

42:                                               ; preds = %._crit_edge39
  unreachable
}